; Function Attrs: nofree norecurse nosync nounwind memory(read, inaccessiblemem: none) uwtable
define range(i32 -1073741824, 1073741824) i32 @Gia_ManEvalEdgeCount(ptr noundef readonly captures(none) %0) local_unnamed_addr #6 {
  %2 = getelementptr inbounds nuw i8, ptr %0, i64 352
  %3 = load ptr, ptr %2, align 8, !tbaa !32
  %4 = getelementptr inbounds nuw i8, ptr %3, i64 4
  %5 = load i32, ptr %4, align 4, !tbaa !31
  %6 = icmp sgt i32 %5, 0
  br i1 %6, label %.lr.ph.i, label %Vec_IntCountPositive.exit

.lr.ph.i:                                         ; preds = %1
  %7 = getelementptr inbounds nuw i8, ptr %3, i64 8
  %8 = load ptr, ptr %7, align 8, !tbaa !8
  %wide.trip.count.i = zext nneg i32 %5 to i64
  br label %9

9:                                                ; preds = %9, %.lr.ph.i
  %indvars.iv.i = phi i64 [ 0, %.lr.ph.i ], [ %indvars.iv.next.i, %9 ]
  %.08.i = phi i32 [ 0, %.lr.ph.i ], [ %14, %9 ]
  %10 = getelementptr inbounds nuw i32, ptr %8, i64 %indvars.iv.i
  %11 = load i32, ptr %10, align 4, !tbaa !34
  %12 = icmp sgt i32 %11, 0
  %13 = zext i1 %12 to i32
  %14 = add nuw nsw i32 %.08.i, %13
  %indvars.iv.next.i = add nuw nsw i64 %indvars.iv.i, 1
  %exitcond.not.i = icmp eq i64 %indvars.iv.next.i, %wide.trip.count.i
  br i1 %exitcond.not.i, label %Vec_IntCountPositive.exit, label %9, !llvm.loop !55

Vec_IntCountPositive.exit:                        ; preds = %9, %1
  %.0.lcssa.i = phi i32 [ 0, %1 ], [ %14, %9 ]
  %15 = getelementptr inbounds nuw i8, ptr %0, i64 360
  %16 = load ptr, ptr %15, align 8, !tbaa !33
  %17 = getelementptr inbounds nuw i8, ptr %16, i64 4
  %18 = load i32, ptr %17, align 4, !tbaa !31
  %19 = icmp sgt i32 %18, 0
  br i1 %19, label %.lr.ph.i3, label %Vec_IntCountPositive.exit9

.lr.ph.i3:                                        ; preds = %Vec_IntCountPositive.exit
  %20 = getelementptr inbounds nuw i8, ptr %16, i64 8
  %21 = load ptr, ptr %20, align 8, !tbaa !8
  %wide.trip.count.i4 = zext nneg i32 %18 to i64
  br label %22

22:                                               ; preds = %22, %.lr.ph.i3
  %indvars.iv.i5 = phi i64 [ 0, %.lr.ph.i3 ], [ %indvars.iv.next.i7, %22 ]
  %.08.i6 = phi i32 [ 0, %.lr.ph.i3 ], [ %27, %22 ]
  %23 = getelementptr inbounds nuw i32, ptr %21, i64 %indvars.iv.i5
  %24 = load i32, ptr %23, align 4, !tbaa !34
  %25 = icmp sgt i32 %24, 0
  %26 = zext i1 %25 to i32
  %27 = add nuw nsw i32 %.08.i6, %26
  %indvars.iv.next.i7 = add nuw nsw i64 %indvars.iv.i5, 1
  %exitcond.not.i8 = icmp eq i64 %indvars.iv.next.i7, %wide.trip.count.i4
  br i1 %exitcond.not.i8, label %Vec_IntCountPositive.exit9, label %22, !llvm.loop !55

Vec_IntCountPositive.exit9:                       ; preds = %22, %Vec_IntCountPositive.exit
  %.0.lcssa.i2 = phi i32 [ 0, %Vec_IntCountPositive.exit ], [ %27, %22 ]
  %28 = add nsw i32 %.0.lcssa.i2, %.0.lcssa.i
  %29 = sdiv i32 %28, 2
  ret i32 %29
}